target datalayout = "e-m:e-p270:32:32-p271:32:32-p272:64:64-i64:64-i128:128-f80:128-n8:16:32:64-S128"
target triple = "x86_64-unknown-linux-gnu"

%"class.fmt::v10::file" = type { i32 }
%class.output_redirect = type { ptr, %"class.fmt::v10::file", %"class.fmt::v10::file" }

; Function Attrs: mustprogress nounwind uwtable
define linkonce_odr hidden noundef i32 @_ZNK3fmt3v104file10descriptorEv(ptr noundef nonnull align 4 dereferenceable(4) %this) #5 comdat align 2 {
entry:
  %this.addr = alloca ptr, align 8
  store ptr %this, ptr %this.addr, align 8
  %this1 = load ptr, ptr %this.addr, align 8
  %fd_ = getelementptr inbounds %"class.fmt::v10::file", ptr %this1, i32 0, i32 0
  %0 = load i32, ptr %fd_, align 4
  ret i32 %0
}

; Function Attrs: mustprogress uwtable
define hidden void @_ZN15output_redirect7restoreEv(ptr noundef nonnull align 8 dereferenceable(16) %this) #4 align 2 {
entry:
  %this.addr = alloca ptr, align 8
  store ptr %this, ptr %this.addr, align 8
  %this1 = load ptr, ptr %this.addr, align 8
  %original_ = getelementptr inbounds %class.output_redirect, ptr %this1, i32 0, i32 1
  %call = call noundef i32 @_ZNK3fmt3v104file10descriptorEv(ptr noundef nonnull align 4 dereferenceable(4) %original_) #3
  %cmp = icmp eq i32 %call, -1
  br i1 %cmp, label %if.then, label %if.end

if.then:                                          ; preds = %entry
  br label %return

if.end:                                           ; preds = %entry
  call void @_ZN15output_redirect5flushEv(ptr noundef nonnull align 8 dereferenceable(16) %this1)
  %original_2 = getelementptr inbounds %class.output_redirect, ptr %this1, i32 0, i32 1
  %file_ = getelementptr inbounds %class.output_redirect, ptr %this1, i32 0, i32 0
  %0 = load ptr, ptr %file_, align 8
  %call3 = call i32 @fileno(ptr noundef %0) #3
  call void @_ZN3fmt3v104file4dup2Ei(ptr noundef nonnull align 4 dereferenceable(4) %original_2, i32 noundef %call3)
  %original_4 = getelementptr inbounds %class.output_redirect, ptr %this1, i32 0, i32 1
  call void @_ZN3fmt3v104file5closeEv(ptr noundef nonnull align 4 dereferenceable(4) %original_4)
  br label %return

return:                                           ; preds = %if.end, %if.then
  ret void
}