; Function Attrs: mustprogress uwtable
define hidden void @_ZN15output_redirect7restoreEv(ptr noundef nonnull align 8 dereferenceable(16) %this) local_unnamed_addr #3 align 2 {
entry:
  %original_ = getelementptr inbounds i8, ptr %this, i64 8
  %0 = load i32, ptr %original_, align 8
  %cmp = icmp eq i32 %0, -1
  br i1 %cmp, label %return, label %if.end

if.end:                                           ; preds = %entry
  tail call void @_ZN15output_redirect5flushEv(ptr noundef nonnull align 8 dereferenceable(16) %this)
  %1 = load ptr, ptr %this, align 8
  %call3 = tail call i32 @fileno(ptr noundef %1) #25
  tail call void @_ZN3fmt3v104file4dup2Ei(ptr noundef nonnull align 4 dereferenceable(4) %original_, i32 noundef %call3)
  tail call void @_ZN3fmt3v104file5closeEv(ptr noundef nonnull align 4 dereferenceable(4) %original_)
  br label %return

return:                                           ; preds = %entry, %if.end
  ret void
}